
math_calculator.elf:     file format elf32-avr

Sections:
Idx Name          Size      VMA       LMA       File off  Algn
  0 .text         00000822  00000000  00000000  00000094  2**1
                  CONTENTS, ALLOC, LOAD, READONLY, CODE
  1 .data         00000048  00800060  00000822  000008b6  2**0
                  CONTENTS, ALLOC, LOAD, DATA
  2 .bss          00000017  008000a8  008000a8  000008fe  2**0
                  ALLOC
  3 .comment      00000030  00000000  00000000  000008fe  2**0
                  CONTENTS, READONLY
  4 .note.gnu.avr.deviceinfo 0000003c  00000000  00000000  00000930  2**2
                  CONTENTS, READONLY
  5 .debug_info   000004e6  00000000  00000000  0000096c  2**0
                  CONTENTS, READONLY, DEBUGGING
  6 .debug_abbrev 000004a3  00000000  00000000  00000e52  2**0
                  CONTENTS, READONLY, DEBUGGING
  7 .debug_line   00000116  00000000  00000000  000012f5  2**0
                  CONTENTS, READONLY, DEBUGGING
  8 .debug_str    00000196  00000000  00000000  0000140b  2**0
                  CONTENTS, READONLY, DEBUGGING

Disassembly of section .text:

00000000 <__vectors>:
   0:	0c 94 2a 00 	jmp	0x54	; 0x54 <__ctors_end>
   4:	0c 94 47 00 	jmp	0x8e	; 0x8e <__bad_interrupt>
   8:	0c 94 47 00 	jmp	0x8e	; 0x8e <__bad_interrupt>
   c:	0c 94 47 00 	jmp	0x8e	; 0x8e <__bad_interrupt>
  10:	0c 94 47 00 	jmp	0x8e	; 0x8e <__bad_interrupt>
  14:	0c 94 47 00 	jmp	0x8e	; 0x8e <__bad_interrupt>
  18:	0c 94 47 00 	jmp	0x8e	; 0x8e <__bad_interrupt>
  1c:	0c 94 47 00 	jmp	0x8e	; 0x8e <__bad_interrupt>
  20:	0c 94 47 00 	jmp	0x8e	; 0x8e <__bad_interrupt>
  24:	0c 94 47 00 	jmp	0x8e	; 0x8e <__bad_interrupt>
  28:	0c 94 47 00 	jmp	0x8e	; 0x8e <__bad_interrupt>
  2c:	0c 94 47 00 	jmp	0x8e	; 0x8e <__bad_interrupt>
  30:	0c 94 47 00 	jmp	0x8e	; 0x8e <__bad_interrupt>
  34:	0c 94 47 00 	jmp	0x8e	; 0x8e <__bad_interrupt>
  38:	0c 94 47 00 	jmp	0x8e	; 0x8e <__bad_interrupt>
  3c:	0c 94 47 00 	jmp	0x8e	; 0x8e <__bad_interrupt>
  40:	0c 94 47 00 	jmp	0x8e	; 0x8e <__bad_interrupt>
  44:	0c 94 47 00 	jmp	0x8e	; 0x8e <__bad_interrupt>
  48:	0c 94 47 00 	jmp	0x8e	; 0x8e <__bad_interrupt>
  4c:	0c 94 47 00 	jmp	0x8e	; 0x8e <__bad_interrupt>
  50:	0c 94 47 00 	jmp	0x8e	; 0x8e <__bad_interrupt>

00000054 <__ctors_end>:
  54:	11 24       	eor	r1, r1
  56:	1f be       	out	0x3f, r1	; 63
  58:	cf e5       	ldi	r28, 0x5F	; 95
  5a:	d8 e0       	ldi	r29, 0x08	; 8
  5c:	de bf       	out	0x3e, r29	; 62
  5e:	cd bf       	out	0x3d, r28	; 61

00000060 <__do_copy_data>:
  60:	10 e0       	ldi	r17, 0x00	; 0
  62:	a0 e6       	ldi	r26, 0x60	; 96
  64:	b0 e0       	ldi	r27, 0x00	; 0
  66:	e2 e2       	ldi	r30, 0x22	; 34
  68:	f8 e0       	ldi	r31, 0x08	; 8
  6a:	02 c0       	rjmp	.+4      	; 0x70 <__do_copy_data+0x10>
  6c:	05 90       	lpm	r0, Z+
  6e:	0d 92       	st	X+, r0
  70:	a8 3a       	cpi	r26, 0xA8	; 168
  72:	b1 07       	cpc	r27, r17
  74:	d9 f7       	brne	.-10     	; 0x6c <__do_copy_data+0xc>

00000076 <__do_clear_bss>:
  76:	20 e0       	ldi	r18, 0x00	; 0
  78:	a8 ea       	ldi	r26, 0xA8	; 168
  7a:	b0 e0       	ldi	r27, 0x00	; 0
  7c:	01 c0       	rjmp	.+2      	; 0x80 <.do_clear_bss_start>

0000007e <.do_clear_bss_loop>:
  7e:	1d 92       	st	X+, r1

00000080 <.do_clear_bss_start>:
  80:	af 3b       	cpi	r26, 0xBF	; 191
  82:	b2 07       	cpc	r27, r18
  84:	e1 f7       	brne	.-8      	; 0x7e <.do_clear_bss_loop>
  86:	0e 94 eb 02 	call	0x5d6	; 0x5d6 <main>
  8a:	0c 94 0f 04 	jmp	0x81e	; 0x81e <_exit>

0000008e <__bad_interrupt>:
  8e:	0c 94 00 00 	jmp	0	; 0x0 <__vectors>

00000092 <handleNumberPressed>:
  92:	0f 93       	push	r16
  94:	1f 93       	push	r17
  96:	cf 93       	push	r28
  98:	c8 2f       	mov	r28, r24
  9a:	e0 91 ae 00 	lds	r30, 0x00AE	; 0x8000ae <operandIndex>
  9e:	44 e0       	ldi	r20, 0x04	; 4
  a0:	e4 9f       	mul	r30, r20
  a2:	f0 01       	movw	r30, r0
  a4:	11 24       	eor	r1, r1
  a6:	df 01       	movw	r26, r30
  a8:	ad 54       	subi	r26, 0x4D	; 77
  aa:	bf 4f       	sbci	r27, 0xFF	; 255
  ac:	2d 91       	ld	r18, X+
  ae:	3d 91       	ld	r19, X+
  b0:	4d 91       	ld	r20, X+
  b2:	5c 91       	ld	r21, X
  b4:	aa e0       	ldi	r26, 0x0A	; 10
  b6:	b0 e0       	ldi	r27, 0x00	; 0
  b8:	0e 94 d3 03 	call	0x7a6	; 0x7a6 <__muluhisi3>
  bc:	2c 2f       	mov	r18, r28
  be:	30 e0       	ldi	r19, 0x00	; 0
  c0:	20 53       	subi	r18, 0x30	; 48
  c2:	31 09       	sbc	r19, r1
  c4:	89 01       	movw	r16, r18
  c6:	33 0f       	add	r19, r19
  c8:	22 0b       	sbc	r18, r18
  ca:	33 0b       	sbc	r19, r19
  cc:	dc 01       	movw	r26, r24
  ce:	cb 01       	movw	r24, r22
  d0:	80 0f       	add	r24, r16
  d2:	91 1f       	adc	r25, r17
  d4:	a2 1f       	adc	r26, r18
  d6:	b3 1f       	adc	r27, r19
  d8:	20 91 ab 00 	lds	r18, 0x00AB	; 0x8000ab <isNegative>
  dc:	22 23       	and	r18, r18
  de:	49 f0       	breq	.+18     	; 0xf2 <handleNumberPressed+0x60>
  e0:	b0 95       	com	r27
  e2:	a0 95       	com	r26
  e4:	90 95       	com	r25
  e6:	81 95       	neg	r24
  e8:	9f 4f       	sbci	r25, 0xFF	; 255
  ea:	af 4f       	sbci	r26, 0xFF	; 255
  ec:	bf 4f       	sbci	r27, 0xFF	; 255
  ee:	10 92 ab 00 	sts	0x00AB, r1	; 0x8000ab <isNegative>
  f2:	8c 01       	movw	r16, r24
  f4:	9d 01       	movw	r18, r26
  f6:	02 50       	subi	r16, 0x02	; 2
  f8:	10 48       	sbci	r17, 0x80	; 128
  fa:	2f 4f       	sbci	r18, 0xFF	; 255
  fc:	3f 4f       	sbci	r19, 0xFF	; 255
  fe:	0d 3f       	cpi	r16, 0xFD	; 253
 100:	1f 4f       	sbci	r17, 0xFF	; 255
 102:	21 05       	cpc	r18, r1
 104:	31 05       	cpc	r19, r1
 106:	50 f4       	brcc	.+20     	; 0x11c <handleNumberPressed+0x8a>
 108:	ed 54       	subi	r30, 0x4D	; 77
 10a:	ff 4f       	sbci	r31, 0xFF	; 255
 10c:	80 83       	st	Z, r24
 10e:	91 83       	std	Z+1, r25	; 0x01
 110:	a2 83       	std	Z+2, r26	; 0x02
 112:	b3 83       	std	Z+3, r27	; 0x03
 114:	81 e0       	ldi	r24, 0x01	; 1
 116:	80 93 ac 00 	sts	0x00AC, r24	; 0x8000ac <operandIsLast>
 11a:	02 c0       	rjmp	.+4      	; 0x120 <handleNumberPressed+0x8e>
 11c:	10 92 a8 00 	sts	0x00A8, r1	; 0x8000a8 <__data_end>
 120:	cf 91       	pop	r28
 122:	1f 91       	pop	r17
 124:	0f 91       	pop	r16
 126:	08 95       	ret

00000128 <calculate>:
 128:	84 e6       	ldi	r24, 0x64	; 100
 12a:	90 e0       	ldi	r25, 0x00	; 0
 12c:	a0 e0       	ldi	r26, 0x00	; 0
 12e:	b0 e0       	ldi	r27, 0x00	; 0
 130:	80 93 af 00 	sts	0x00AF, r24	; 0x8000af <result>
 134:	90 93 b0 00 	sts	0x00B0, r25	; 0x8000b0 <result+0x1>
 138:	a0 93 b1 00 	sts	0x00B1, r26	; 0x8000b1 <result+0x2>
 13c:	b0 93 b2 00 	sts	0x00B2, r27	; 0x8000b2 <result+0x3>
 140:	81 e0       	ldi	r24, 0x01	; 1
 142:	80 93 a9 00 	sts	0x00A9, r24	; 0x8000a9 <resultRequested>
 146:	08 95       	ret

00000148 <handleOperation>:
 148:	8b 32       	cpi	r24, 0x2B	; 43
 14a:	f1 f0       	breq	.+60     	; 0x188 <handleOperation+0x40>
 14c:	18 f4       	brcc	.+6      	; 0x154 <handleOperation+0xc>
 14e:	8a 32       	cpi	r24, 0x2A	; 42
 150:	b1 f0       	breq	.+44     	; 0x17e <handleOperation+0x36>
 152:	08 95       	ret
 154:	8d 32       	cpi	r24, 0x2D	; 45
 156:	e9 f0       	breq	.+58     	; 0x192 <handleOperation+0x4a>
 158:	8f 32       	cpi	r24, 0x2F	; 47
 15a:	11 f5       	brne	.+68     	; 0x1a0 <handleOperation+0x58>
 15c:	80 91 ac 00 	lds	r24, 0x00AC	; 0x8000ac <operandIsLast>
 160:	88 23       	and	r24, r24
 162:	f1 f0       	breq	.+60     	; 0x1a0 <handleOperation+0x58>
 164:	80 91 ad 00 	lds	r24, 0x00AD	; 0x8000ad <operationIndex>
 168:	8f 5f       	subi	r24, 0xFF	; 255
 16a:	80 93 ad 00 	sts	0x00AD, r24	; 0x8000ad <operationIndex>
 16e:	80 91 ae 00 	lds	r24, 0x00AE	; 0x8000ae <operandIndex>
 172:	8f 5f       	subi	r24, 0xFF	; 255
 174:	80 93 ae 00 	sts	0x00AE, r24	; 0x8000ae <operandIndex>
 178:	10 92 ac 00 	sts	0x00AC, r1	; 0x8000ac <operandIsLast>
 17c:	08 95       	ret
 17e:	80 91 ac 00 	lds	r24, 0x00AC	; 0x8000ac <operandIsLast>
 182:	81 11       	cpse	r24, r1
 184:	ef cf       	rjmp	.-34     	; 0x164 <handleOperation+0x1c>
 186:	08 95       	ret
 188:	80 91 ac 00 	lds	r24, 0x00AC	; 0x8000ac <operandIsLast>
 18c:	81 11       	cpse	r24, r1
 18e:	ea cf       	rjmp	.-44     	; 0x164 <handleOperation+0x1c>
 190:	08 95       	ret
 192:	80 91 ac 00 	lds	r24, 0x00AC	; 0x8000ac <operandIsLast>
 196:	81 11       	cpse	r24, r1
 198:	e5 cf       	rjmp	.-54     	; 0x164 <handleOperation+0x1c>
 19a:	81 e0       	ldi	r24, 0x01	; 1
 19c:	80 93 ab 00 	sts	0x00AB, r24	; 0x8000ab <isNegative>
 1a0:	08 95       	ret

000001a2 <resetCalculator>:
 1a2:	0e 94 e1 02 	call	0x5c2	; 0x5c2 <LCD_Clear>
 1a6:	10 92 ae 00 	sts	0x00AE, r1	; 0x8000ae <operandIndex>
 1aa:	10 92 ad 00 	sts	0x00AD, r1	; 0x8000ad <operationIndex>
 1ae:	10 92 ac 00 	sts	0x00AC, r1	; 0x8000ac <operandIsLast>
 1b2:	10 92 ab 00 	sts	0x00AB, r1	; 0x8000ab <isNegative>
 1b6:	10 92 aa 00 	sts	0x00AA, r1	; 0x8000aa <cursorPosition>
 1ba:	10 92 af 00 	sts	0x00AF, r1	; 0x8000af <result>
 1be:	10 92 b0 00 	sts	0x00B0, r1	; 0x8000b0 <result+0x1>
 1c2:	10 92 b1 00 	sts	0x00B1, r1	; 0x8000b1 <result+0x2>
 1c6:	10 92 b2 00 	sts	0x00B2, r1	; 0x8000b2 <result+0x3>
 1ca:	10 92 a9 00 	sts	0x00A9, r1	; 0x8000a9 <resultRequested>
 1ce:	81 e0       	ldi	r24, 0x01	; 1
 1d0:	80 93 a8 00 	sts	0x00A8, r24	; 0x8000a8 <__data_end>
 1d4:	e3 eb       	ldi	r30, 0xB3	; 179
 1d6:	f0 e0       	ldi	r31, 0x00	; 0
 1d8:	10 82       	st	Z, r1
 1da:	11 82       	std	Z+1, r1	; 0x01
 1dc:	12 82       	std	Z+2, r1	; 0x02
 1de:	13 82       	std	Z+3, r1	; 0x03
 1e0:	14 82       	std	Z+4, r1	; 0x04
 1e2:	15 82       	std	Z+5, r1	; 0x05
 1e4:	16 82       	std	Z+6, r1	; 0x06
 1e6:	17 82       	std	Z+7, r1	; 0x07
 1e8:	10 86       	std	Z+8, r1	; 0x08
 1ea:	11 86       	std	Z+9, r1	; 0x09
 1ec:	12 86       	std	Z+10, r1	; 0x0a
 1ee:	13 86       	std	Z+11, r1	; 0x0b
 1f0:	08 95       	ret

000001f2 <Calculator_init>:
 1f2:	0c 94 d1 00 	jmp	0x1a2	; 0x1a2 <resetCalculator>

000001f6 <Calculator_Runnable>:
 1f6:	cf 93       	push	r28
 1f8:	0e 94 4c 01 	call	0x298	; 0x298 <KEYPAD_GetKey>
 1fc:	c8 2f       	mov	r28, r24
 1fe:	84 35       	cpi	r24, 0x54	; 84
 200:	f1 f1       	breq	.+124    	; 0x27e <Calculator_Runnable+0x88>
 202:	8d 33       	cpi	r24, 0x3D	; 61
 204:	81 f0       	breq	.+32     	; 0x226 <Calculator_Runnable+0x30>
 206:	40 f4       	brcc	.+16     	; 0x218 <Calculator_Runnable+0x22>
 208:	80 ed       	ldi	r24, 0xD0	; 208
 20a:	8c 0f       	add	r24, r28
 20c:	8a 30       	cpi	r24, 0x0A	; 10
 20e:	70 f4       	brcc	.+28     	; 0x22c <Calculator_Runnable+0x36>
 210:	8c 2f       	mov	r24, r28
 212:	0e 94 49 00 	call	0x92	; 0x92 <handleNumberPressed>
 216:	0d c0       	rjmp	.+26     	; 0x232 <Calculator_Runnable+0x3c>
 218:	83 34       	cpi	r24, 0x43	; 67
 21a:	41 f4       	brne	.+16     	; 0x22c <Calculator_Runnable+0x36>
 21c:	0e 94 d1 00 	call	0x1a2	; 0x1a2 <resetCalculator>
 220:	10 92 a8 00 	sts	0x00A8, r1	; 0x8000a8 <__data_end>
 224:	03 c0       	rjmp	.+6      	; 0x22c <Calculator_Runnable+0x36>
 226:	0e 94 94 00 	call	0x128	; 0x128 <calculate>
 22a:	03 c0       	rjmp	.+6      	; 0x232 <Calculator_Runnable+0x3c>
 22c:	8c 2f       	mov	r24, r28
 22e:	0e 94 a4 00 	call	0x148	; 0x148 <handleOperation>
 232:	80 91 a8 00 	lds	r24, 0x00A8	; 0x8000a8 <__data_end>
 236:	88 23       	and	r24, r24
 238:	49 f0       	breq	.+18     	; 0x24c <Calculator_Runnable+0x56>
 23a:	8c 2f       	mov	r24, r28
 23c:	0e 94 5a 02 	call	0x4b4	; 0x4b4 <LCD_WriteChar>
 240:	80 91 aa 00 	lds	r24, 0x00AA	; 0x8000aa <cursorPosition>
 244:	8f 5f       	subi	r24, 0xFF	; 255
 246:	80 93 aa 00 	sts	0x00AA, r24	; 0x8000aa <cursorPosition>
 24a:	03 c0       	rjmp	.+6      	; 0x252 <Calculator_Runnable+0x5c>
 24c:	81 e0       	ldi	r24, 0x01	; 1
 24e:	80 93 a8 00 	sts	0x00A8, r24	; 0x8000a8 <__data_end>
 252:	80 91 a9 00 	lds	r24, 0x00A9	; 0x8000a9 <resultRequested>
 256:	88 23       	and	r24, r24
 258:	91 f0       	breq	.+36     	; 0x27e <Calculator_Runnable+0x88>
 25a:	60 e0       	ldi	r22, 0x00	; 0
 25c:	81 e0       	ldi	r24, 0x01	; 1
 25e:	0e 94 d6 02 	call	0x5ac	; 0x5ac <LCD_GoTo>
 262:	60 91 af 00 	lds	r22, 0x00AF	; 0x8000af <result>
 266:	70 91 b0 00 	lds	r23, 0x00B0	; 0x8000b0 <result+0x1>
 26a:	80 91 b1 00 	lds	r24, 0x00B1	; 0x8000b1 <result+0x2>
 26e:	90 91 b2 00 	lds	r25, 0x00B2	; 0x8000b2 <result+0x3>
 272:	0e 94 5c 02 	call	0x4b8	; 0x4b8 <LCD_WriteNumber>
 276:	10 92 aa 00 	sts	0x00AA, r1	; 0x8000aa <cursorPosition>
 27a:	10 92 a9 00 	sts	0x00A9, r1	; 0x8000a9 <resultRequested>
 27e:	cf 91       	pop	r28
 280:	08 95       	ret

00000282 <KEYPAD_Init>:
 282:	cf 93       	push	r28
 284:	cc e0       	ldi	r28, 0x0C	; 12
 286:	61 e0       	ldi	r22, 0x01	; 1
 288:	8c 2f       	mov	r24, r28
 28a:	0e 94 60 03 	call	0x6c0	; 0x6c0 <DIO_WritePin>
 28e:	cf 5f       	subi	r28, 0xFF	; 255
 290:	c0 31       	cpi	r28, 0x10	; 16
 292:	c9 f7       	brne	.-14     	; 0x286 <KEYPAD_Init+0x4>
 294:	cf 91       	pop	r28
 296:	08 95       	ret

00000298 <KEYPAD_GetKey>:
 298:	0f 93       	push	r16
 29a:	1f 93       	push	r17
 29c:	cf 93       	push	r28
 29e:	df 93       	push	r29
 2a0:	c0 e0       	ldi	r28, 0x00	; 0
 2a2:	1c e0       	ldi	r17, 0x0C	; 12
 2a4:	1c 0f       	add	r17, r28
 2a6:	60 e0       	ldi	r22, 0x00	; 0
 2a8:	81 2f       	mov	r24, r17
 2aa:	0e 94 60 03 	call	0x6c0	; 0x6c0 <DIO_WritePin>
 2ae:	d0 e0       	ldi	r29, 0x00	; 0
 2b0:	0a e1       	ldi	r16, 0x1A	; 26
 2b2:	0d 0f       	add	r16, r29
 2b4:	80 2f       	mov	r24, r16
 2b6:	0e 94 97 03 	call	0x72e	; 0x72e <DIO_ReadPin>
 2ba:	81 11       	cpse	r24, r1
 2bc:	1d c0       	rjmp	.+58     	; 0x2f8 <KEYPAD_GetKey+0x60>
 2be:	24 e0       	ldi	r18, 0x04	; 4
 2c0:	c2 9f       	mul	r28, r18
 2c2:	f0 01       	movw	r30, r0
 2c4:	11 24       	eor	r1, r1
 2c6:	e0 5a       	subi	r30, 0xA0	; 160
 2c8:	ff 4f       	sbci	r31, 0xFF	; 255
 2ca:	ed 0f       	add	r30, r29
 2cc:	f1 1d       	adc	r31, r1
 2ce:	c0 81       	ld	r28, Z
 2d0:	80 2f       	mov	r24, r16
 2d2:	0e 94 97 03 	call	0x72e	; 0x72e <DIO_ReadPin>
 2d6:	88 23       	and	r24, r24
 2d8:	d9 f3       	breq	.-10     	; 0x2d0 <KEYPAD_GetKey+0x38>
 2da:	8f ef       	ldi	r24, 0xFF	; 255
 2dc:	93 ef       	ldi	r25, 0xF3	; 243
 2de:	21 e0       	ldi	r18, 0x01	; 1
 2e0:	81 50       	subi	r24, 0x01	; 1
 2e2:	90 40       	sbci	r25, 0x00	; 0
 2e4:	20 40       	sbci	r18, 0x00	; 0
 2e6:	e1 f7       	brne	.-8      	; 0x2e0 <KEYPAD_GetKey+0x48>
 2e8:	00 c0       	rjmp	.+0      	; 0x2ea <KEYPAD_GetKey+0x52>
 2ea:	00 00       	nop
 2ec:	61 e0       	ldi	r22, 0x01	; 1
 2ee:	81 2f       	mov	r24, r17
 2f0:	0e 94 60 03 	call	0x6c0	; 0x6c0 <DIO_WritePin>
 2f4:	8c 2f       	mov	r24, r28
 2f6:	0b c0       	rjmp	.+22     	; 0x30e <KEYPAD_GetKey+0x76>
 2f8:	df 5f       	subi	r29, 0xFF	; 255
 2fa:	d4 30       	cpi	r29, 0x04	; 4
 2fc:	c9 f6       	brne	.-78     	; 0x2b0 <KEYPAD_GetKey+0x18>
 2fe:	61 e0       	ldi	r22, 0x01	; 1
 300:	81 2f       	mov	r24, r17
 302:	0e 94 60 03 	call	0x6c0	; 0x6c0 <DIO_WritePin>
 306:	cf 5f       	subi	r28, 0xFF	; 255
 308:	c4 30       	cpi	r28, 0x04	; 4
 30a:	59 f6       	brne	.-106    	; 0x2a2 <KEYPAD_GetKey+0xa>
 30c:	84 e5       	ldi	r24, 0x54	; 84
 30e:	df 91       	pop	r29
 310:	cf 91       	pop	r28
 312:	1f 91       	pop	r17
 314:	0f 91       	pop	r16
 316:	08 95       	ret

00000318 <WriteIns>:
 318:	cf 93       	push	r28
 31a:	c8 2f       	mov	r28, r24
 31c:	60 e0       	ldi	r22, 0x00	; 0
 31e:	81 e0       	ldi	r24, 0x01	; 1
 320:	0e 94 60 03 	call	0x6c0	; 0x6c0 <DIO_WritePin>
 324:	6c 2f       	mov	r22, r28
 326:	66 1f       	adc	r22, r22
 328:	66 27       	eor	r22, r22
 32a:	66 1f       	adc	r22, r22
 32c:	86 e0       	ldi	r24, 0x06	; 6
 32e:	0e 94 60 03 	call	0x6c0	; 0x6c0 <DIO_WritePin>
 332:	c6 fb       	bst	r28, 6
 334:	66 27       	eor	r22, r22
 336:	60 f9       	bld	r22, 0
 338:	85 e0       	ldi	r24, 0x05	; 5
 33a:	0e 94 60 03 	call	0x6c0	; 0x6c0 <DIO_WritePin>
 33e:	c5 fb       	bst	r28, 5
 340:	66 27       	eor	r22, r22
 342:	60 f9       	bld	r22, 0
 344:	84 e0       	ldi	r24, 0x04	; 4
 346:	0e 94 60 03 	call	0x6c0	; 0x6c0 <DIO_WritePin>
 34a:	c4 fb       	bst	r28, 4
 34c:	66 27       	eor	r22, r22
 34e:	60 f9       	bld	r22, 0
 350:	83 e0       	ldi	r24, 0x03	; 3
 352:	0e 94 60 03 	call	0x6c0	; 0x6c0 <DIO_WritePin>
 356:	61 e0       	ldi	r22, 0x01	; 1
 358:	82 e0       	ldi	r24, 0x02	; 2
 35a:	0e 94 60 03 	call	0x6c0	; 0x6c0 <DIO_WritePin>
 35e:	8f ec       	ldi	r24, 0xCF	; 207
 360:	97 e0       	ldi	r25, 0x07	; 7
 362:	01 97       	sbiw	r24, 0x01	; 1
 364:	f1 f7       	brne	.-4      	; 0x362 <WriteIns+0x4a>
 366:	00 c0       	rjmp	.+0      	; 0x368 <WriteIns+0x50>
 368:	00 00       	nop
 36a:	60 e0       	ldi	r22, 0x00	; 0
 36c:	82 e0       	ldi	r24, 0x02	; 2
 36e:	0e 94 60 03 	call	0x6c0	; 0x6c0 <DIO_WritePin>
 372:	c3 fb       	bst	r28, 3
 374:	66 27       	eor	r22, r22
 376:	60 f9       	bld	r22, 0
 378:	86 e0       	ldi	r24, 0x06	; 6
 37a:	0e 94 60 03 	call	0x6c0	; 0x6c0 <DIO_WritePin>
 37e:	c2 fb       	bst	r28, 2
 380:	66 27       	eor	r22, r22
 382:	60 f9       	bld	r22, 0
 384:	85 e0       	ldi	r24, 0x05	; 5
 386:	0e 94 60 03 	call	0x6c0	; 0x6c0 <DIO_WritePin>
 38a:	c1 fb       	bst	r28, 1
 38c:	66 27       	eor	r22, r22
 38e:	60 f9       	bld	r22, 0
 390:	84 e0       	ldi	r24, 0x04	; 4
 392:	0e 94 60 03 	call	0x6c0	; 0x6c0 <DIO_WritePin>
 396:	6c 2f       	mov	r22, r28
 398:	61 70       	andi	r22, 0x01	; 1
 39a:	83 e0       	ldi	r24, 0x03	; 3
 39c:	0e 94 60 03 	call	0x6c0	; 0x6c0 <DIO_WritePin>
 3a0:	61 e0       	ldi	r22, 0x01	; 1
 3a2:	82 e0       	ldi	r24, 0x02	; 2
 3a4:	0e 94 60 03 	call	0x6c0	; 0x6c0 <DIO_WritePin>
 3a8:	8f ec       	ldi	r24, 0xCF	; 207
 3aa:	97 e0       	ldi	r25, 0x07	; 7
 3ac:	01 97       	sbiw	r24, 0x01	; 1
 3ae:	f1 f7       	brne	.-4      	; 0x3ac <WriteIns+0x94>
 3b0:	00 c0       	rjmp	.+0      	; 0x3b2 <WriteIns+0x9a>
 3b2:	00 00       	nop
 3b4:	60 e0       	ldi	r22, 0x00	; 0
 3b6:	82 e0       	ldi	r24, 0x02	; 2
 3b8:	0e 94 60 03 	call	0x6c0	; 0x6c0 <DIO_WritePin>
 3bc:	8f e9       	ldi	r24, 0x9F	; 159
 3be:	9f e0       	ldi	r25, 0x0F	; 15
 3c0:	01 97       	sbiw	r24, 0x01	; 1
 3c2:	f1 f7       	brne	.-4      	; 0x3c0 <WriteIns+0xa8>
 3c4:	00 c0       	rjmp	.+0      	; 0x3c6 <WriteIns+0xae>
 3c6:	00 00       	nop
 3c8:	cf 91       	pop	r28
 3ca:	08 95       	ret

000003cc <WriteData>:
 3cc:	cf 93       	push	r28
 3ce:	c8 2f       	mov	r28, r24
 3d0:	61 e0       	ldi	r22, 0x01	; 1
 3d2:	81 e0       	ldi	r24, 0x01	; 1
 3d4:	0e 94 60 03 	call	0x6c0	; 0x6c0 <DIO_WritePin>
 3d8:	6c 2f       	mov	r22, r28
 3da:	66 1f       	adc	r22, r22
 3dc:	66 27       	eor	r22, r22
 3de:	66 1f       	adc	r22, r22
 3e0:	86 e0       	ldi	r24, 0x06	; 6
 3e2:	0e 94 60 03 	call	0x6c0	; 0x6c0 <DIO_WritePin>
 3e6:	c6 fb       	bst	r28, 6
 3e8:	66 27       	eor	r22, r22
 3ea:	60 f9       	bld	r22, 0
 3ec:	85 e0       	ldi	r24, 0x05	; 5
 3ee:	0e 94 60 03 	call	0x6c0	; 0x6c0 <DIO_WritePin>
 3f2:	c5 fb       	bst	r28, 5
 3f4:	66 27       	eor	r22, r22
 3f6:	60 f9       	bld	r22, 0
 3f8:	84 e0       	ldi	r24, 0x04	; 4
 3fa:	0e 94 60 03 	call	0x6c0	; 0x6c0 <DIO_WritePin>
 3fe:	c4 fb       	bst	r28, 4
 400:	66 27       	eor	r22, r22
 402:	60 f9       	bld	r22, 0
 404:	83 e0       	ldi	r24, 0x03	; 3
 406:	0e 94 60 03 	call	0x6c0	; 0x6c0 <DIO_WritePin>
 40a:	61 e0       	ldi	r22, 0x01	; 1
 40c:	82 e0       	ldi	r24, 0x02	; 2
 40e:	0e 94 60 03 	call	0x6c0	; 0x6c0 <DIO_WritePin>
 412:	8f ec       	ldi	r24, 0xCF	; 207
 414:	97 e0       	ldi	r25, 0x07	; 7
 416:	01 97       	sbiw	r24, 0x01	; 1
 418:	f1 f7       	brne	.-4      	; 0x416 <__EEPROM_REGION_LENGTH__+0x16>
 41a:	00 c0       	rjmp	.+0      	; 0x41c <__EEPROM_REGION_LENGTH__+0x1c>
 41c:	00 00       	nop
 41e:	60 e0       	ldi	r22, 0x00	; 0
 420:	82 e0       	ldi	r24, 0x02	; 2
 422:	0e 94 60 03 	call	0x6c0	; 0x6c0 <DIO_WritePin>
 426:	c3 fb       	bst	r28, 3
 428:	66 27       	eor	r22, r22
 42a:	60 f9       	bld	r22, 0
 42c:	86 e0       	ldi	r24, 0x06	; 6
 42e:	0e 94 60 03 	call	0x6c0	; 0x6c0 <DIO_WritePin>
 432:	c2 fb       	bst	r28, 2
 434:	66 27       	eor	r22, r22
 436:	60 f9       	bld	r22, 0
 438:	85 e0       	ldi	r24, 0x05	; 5
 43a:	0e 94 60 03 	call	0x6c0	; 0x6c0 <DIO_WritePin>
 43e:	c1 fb       	bst	r28, 1
 440:	66 27       	eor	r22, r22
 442:	60 f9       	bld	r22, 0
 444:	84 e0       	ldi	r24, 0x04	; 4
 446:	0e 94 60 03 	call	0x6c0	; 0x6c0 <DIO_WritePin>
 44a:	6c 2f       	mov	r22, r28
 44c:	61 70       	andi	r22, 0x01	; 1
 44e:	83 e0       	ldi	r24, 0x03	; 3
 450:	0e 94 60 03 	call	0x6c0	; 0x6c0 <DIO_WritePin>
 454:	61 e0       	ldi	r22, 0x01	; 1
 456:	82 e0       	ldi	r24, 0x02	; 2
 458:	0e 94 60 03 	call	0x6c0	; 0x6c0 <DIO_WritePin>
 45c:	92 e0       	ldi	r25, 0x02	; 2
 45e:	9a 95       	dec	r25
 460:	f1 f7       	brne	.-4      	; 0x45e <__EEPROM_REGION_LENGTH__+0x5e>
 462:	00 c0       	rjmp	.+0      	; 0x464 <__EEPROM_REGION_LENGTH__+0x64>
 464:	60 e0       	ldi	r22, 0x00	; 0
 466:	82 e0       	ldi	r24, 0x02	; 2
 468:	0e 94 60 03 	call	0x6c0	; 0x6c0 <DIO_WritePin>
 46c:	82 e0       	ldi	r24, 0x02	; 2
 46e:	8a 95       	dec	r24
 470:	f1 f7       	brne	.-4      	; 0x46e <__EEPROM_REGION_LENGTH__+0x6e>
 472:	00 c0       	rjmp	.+0      	; 0x474 <__EEPROM_REGION_LENGTH__+0x74>
 474:	cf 91       	pop	r28
 476:	08 95       	ret

00000478 <LCD_Init>:
 478:	2f e7       	ldi	r18, 0x7F	; 127
 47a:	88 e3       	ldi	r24, 0x38	; 56
 47c:	91 e0       	ldi	r25, 0x01	; 1
 47e:	21 50       	subi	r18, 0x01	; 1
 480:	80 40       	sbci	r24, 0x00	; 0
 482:	90 40       	sbci	r25, 0x00	; 0
 484:	e1 f7       	brne	.-8      	; 0x47e <LCD_Init+0x6>
 486:	00 c0       	rjmp	.+0      	; 0x488 <LCD_Init+0x10>
 488:	00 00       	nop
 48a:	82 e0       	ldi	r24, 0x02	; 2
 48c:	0e 94 8c 01 	call	0x318	; 0x318 <WriteIns>
 490:	88 e2       	ldi	r24, 0x28	; 40
 492:	0e 94 8c 01 	call	0x318	; 0x318 <WriteIns>
 496:	8c e0       	ldi	r24, 0x0C	; 12
 498:	0e 94 8c 01 	call	0x318	; 0x318 <WriteIns>
 49c:	81 e0       	ldi	r24, 0x01	; 1
 49e:	0e 94 8c 01 	call	0x318	; 0x318 <WriteIns>
 4a2:	8f ec       	ldi	r24, 0xCF	; 207
 4a4:	97 e0       	ldi	r25, 0x07	; 7
 4a6:	01 97       	sbiw	r24, 0x01	; 1
 4a8:	f1 f7       	brne	.-4      	; 0x4a6 <LCD_Init+0x2e>
 4aa:	00 c0       	rjmp	.+0      	; 0x4ac <LCD_Init+0x34>
 4ac:	00 00       	nop
 4ae:	86 e0       	ldi	r24, 0x06	; 6
 4b0:	0c 94 8c 01 	jmp	0x318	; 0x318 <WriteIns>

000004b4 <LCD_WriteChar>:
 4b4:	0c 94 e6 01 	jmp	0x3cc	; 0x3cc <WriteData>

000004b8 <LCD_WriteNumber>:
 4b8:	8f 92       	push	r8
 4ba:	9f 92       	push	r9
 4bc:	af 92       	push	r10
 4be:	bf 92       	push	r11
 4c0:	ff 92       	push	r15
 4c2:	0f 93       	push	r16
 4c4:	1f 93       	push	r17
 4c6:	cf 93       	push	r28
 4c8:	df 93       	push	r29
 4ca:	cd b7       	in	r28, 0x3d	; 61
 4cc:	de b7       	in	r29, 0x3e	; 62
 4ce:	6e 97       	sbiw	r28, 0x1e	; 30
 4d0:	0f b6       	in	r0, 0x3f	; 63
 4d2:	f8 94       	cli
 4d4:	de bf       	out	0x3e, r29	; 62
 4d6:	0f be       	out	0x3f, r0	; 63
 4d8:	cd bf       	out	0x3d, r28	; 61
 4da:	9b 01       	movw	r18, r22
 4dc:	ac 01       	movw	r20, r24
 4de:	61 15       	cp	r22, r1
 4e0:	71 05       	cpc	r23, r1
 4e2:	81 05       	cpc	r24, r1
 4e4:	91 05       	cpc	r25, r1
 4e6:	91 f4       	brne	.+36     	; 0x50c <LCD_WriteNumber+0x54>
 4e8:	80 e3       	ldi	r24, 0x30	; 48
 4ea:	6e 96       	adiw	r28, 0x1e	; 30
 4ec:	0f b6       	in	r0, 0x3f	; 63
 4ee:	f8 94       	cli
 4f0:	de bf       	out	0x3e, r29	; 62
 4f2:	0f be       	out	0x3f, r0	; 63
 4f4:	cd bf       	out	0x3d, r28	; 61
 4f6:	df 91       	pop	r29
 4f8:	cf 91       	pop	r28
 4fa:	1f 91       	pop	r17
 4fc:	0f 91       	pop	r16
 4fe:	ff 90       	pop	r15
 500:	bf 90       	pop	r11
 502:	af 90       	pop	r10
 504:	9f 90       	pop	r9
 506:	8f 90       	pop	r8
 508:	0c 94 e6 01 	jmp	0x3cc	; 0x3cc <WriteData>
 50c:	97 ff       	sbrs	r25, 7
 50e:	0a c0       	rjmp	.+20     	; 0x524 <LCD_WriteNumber+0x6c>
 510:	50 95       	com	r21
 512:	40 95       	com	r20
 514:	30 95       	com	r19
 516:	21 95       	neg	r18
 518:	3f 4f       	sbci	r19, 0xFF	; 255
 51a:	4f 4f       	sbci	r20, 0xFF	; 255
 51c:	5f 4f       	sbci	r21, 0xFF	; 255
 51e:	ff 24       	eor	r15, r15
 520:	f3 94       	inc	r15
 522:	01 c0       	rjmp	.+2      	; 0x526 <LCD_WriteNumber+0x6e>
 524:	f1 2c       	mov	r15, r1
 526:	00 e0       	ldi	r16, 0x00	; 0
 528:	8a e0       	ldi	r24, 0x0A	; 10
 52a:	88 2e       	mov	r8, r24
 52c:	91 2c       	mov	r9, r1
 52e:	a1 2c       	mov	r10, r1
 530:	b1 2c       	mov	r11, r1
 532:	ca 01       	movw	r24, r20
 534:	b9 01       	movw	r22, r18
 536:	a5 01       	movw	r20, r10
 538:	94 01       	movw	r18, r8
 53a:	0e 94 b4 03 	call	0x768	; 0x768 <__divmodsi4>
 53e:	e1 e0       	ldi	r30, 0x01	; 1
 540:	f0 e0       	ldi	r31, 0x00	; 0
 542:	ec 0f       	add	r30, r28
 544:	fd 1f       	adc	r31, r29
 546:	e0 0f       	add	r30, r16
 548:	f1 1d       	adc	r31, r1
 54a:	60 5d       	subi	r22, 0xD0	; 208
 54c:	60 83       	st	Z, r22
 54e:	11 e0       	ldi	r17, 0x01	; 1
 550:	10 0f       	add	r17, r16
 552:	21 15       	cp	r18, r1
 554:	31 05       	cpc	r19, r1
 556:	41 05       	cpc	r20, r1
 558:	51 05       	cpc	r21, r1
 55a:	11 f0       	breq	.+4      	; 0x560 <LCD_WriteNumber+0xa8>
 55c:	01 2f       	mov	r16, r17
 55e:	e9 cf       	rjmp	.-46     	; 0x532 <LCD_WriteNumber+0x7a>
 560:	ff 20       	and	r15, r15
 562:	51 f0       	breq	.+20     	; 0x578 <LCD_WriteNumber+0xc0>
 564:	e1 e0       	ldi	r30, 0x01	; 1
 566:	f0 e0       	ldi	r31, 0x00	; 0
 568:	ec 0f       	add	r30, r28
 56a:	fd 1f       	adc	r31, r29
 56c:	e1 0f       	add	r30, r17
 56e:	f1 1d       	adc	r31, r1
 570:	8d e2       	ldi	r24, 0x2D	; 45
 572:	80 83       	st	Z, r24
 574:	12 e0       	ldi	r17, 0x02	; 2
 576:	10 0f       	add	r17, r16
 578:	11 23       	and	r17, r17
 57a:	41 f0       	breq	.+16     	; 0x58c <LCD_WriteNumber+0xd4>
 57c:	fe 01       	movw	r30, r28
 57e:	e1 0f       	add	r30, r17
 580:	f1 1d       	adc	r31, r1
 582:	80 81       	ld	r24, Z
 584:	0e 94 e6 01 	call	0x3cc	; 0x3cc <WriteData>
 588:	11 50       	subi	r17, 0x01	; 1
 58a:	f6 cf       	rjmp	.-20     	; 0x578 <LCD_WriteNumber+0xc0>
 58c:	6e 96       	adiw	r28, 0x1e	; 30
 58e:	0f b6       	in	r0, 0x3f	; 63
 590:	f8 94       	cli
 592:	de bf       	out	0x3e, r29	; 62
 594:	0f be       	out	0x3f, r0	; 63
 596:	cd bf       	out	0x3d, r28	; 61
 598:	df 91       	pop	r29
 59a:	cf 91       	pop	r28
 59c:	1f 91       	pop	r17
 59e:	0f 91       	pop	r16
 5a0:	ff 90       	pop	r15
 5a2:	bf 90       	pop	r11
 5a4:	af 90       	pop	r10
 5a6:	9f 90       	pop	r9
 5a8:	8f 90       	pop	r8
 5aa:	08 95       	ret

000005ac <LCD_GoTo>:
 5ac:	81 11       	cpse	r24, r1
 5ae:	02 c0       	rjmp	.+4      	; 0x5b4 <LCD_GoTo+0x8>
 5b0:	80 e8       	ldi	r24, 0x80	; 128
 5b2:	03 c0       	rjmp	.+6      	; 0x5ba <LCD_GoTo+0xe>
 5b4:	81 30       	cpi	r24, 0x01	; 1
 5b6:	21 f4       	brne	.+8      	; 0x5c0 <LCD_GoTo+0x14>
 5b8:	80 ec       	ldi	r24, 0xC0	; 192
 5ba:	86 0f       	add	r24, r22
 5bc:	0c 94 8c 01 	jmp	0x318	; 0x318 <WriteIns>
 5c0:	08 95       	ret

000005c2 <LCD_Clear>:
 5c2:	81 e0       	ldi	r24, 0x01	; 1
 5c4:	0e 94 8c 01 	call	0x318	; 0x318 <WriteIns>
 5c8:	8f ec       	ldi	r24, 0xCF	; 207
 5ca:	97 e0       	ldi	r25, 0x07	; 7
 5cc:	01 97       	sbiw	r24, 0x01	; 1
 5ce:	f1 f7       	brne	.-4      	; 0x5cc <LCD_Clear+0xa>
 5d0:	00 c0       	rjmp	.+0      	; 0x5d2 <LCD_Clear+0x10>
 5d2:	00 00       	nop
 5d4:	08 95       	ret

000005d6 <main>:
 5d6:	0e 94 f6 02 	call	0x5ec	; 0x5ec <DIO_init>
 5da:	0e 94 3c 02 	call	0x478	; 0x478 <LCD_Init>
 5de:	0e 94 41 01 	call	0x282	; 0x282 <KEYPAD_Init>
 5e2:	0e 94 f9 00 	call	0x1f2	; 0x1f2 <Calculator_init>
 5e6:	0e 94 fb 00 	call	0x1f6	; 0x1f6 <Calculator_Runnable>
 5ea:	fd cf       	rjmp	.-6      	; 0x5e6 <main+0x10>

000005ec <DIO_init>:
 5ec:	0f 93       	push	r16
 5ee:	1f 93       	push	r17
 5f0:	cf 93       	push	r28
 5f2:	df 93       	push	r29
 5f4:	a0 e7       	ldi	r26, 0x70	; 112
 5f6:	b0 e0       	ldi	r27, 0x00	; 0
 5f8:	40 e0       	ldi	r20, 0x00	; 0
 5fa:	56 e0       	ldi	r21, 0x06	; 6
 5fc:	21 e0       	ldi	r18, 0x01	; 1
 5fe:	30 e0       	ldi	r19, 0x00	; 0
 600:	9d 91       	ld	r25, X+
 602:	e4 2f       	mov	r30, r20
 604:	e6 95       	lsr	r30
 606:	e6 95       	lsr	r30
 608:	e6 95       	lsr	r30
 60a:	84 2f       	mov	r24, r20
 60c:	87 70       	andi	r24, 0x07	; 7
 60e:	91 30       	cpi	r25, 0x01	; 1
 610:	a9 f1       	breq	.+106    	; 0x67c <DIO_init+0x90>
 612:	e0 f0       	brcs	.+56     	; 0x64c <DIO_init+0x60>
 614:	92 30       	cpi	r25, 0x02	; 2
 616:	09 f0       	breq	.+2      	; 0x61a <DIO_init+0x2e>
 618:	4a c0       	rjmp	.+148    	; 0x6ae <DIO_init+0xc2>
 61a:	5e 9f       	mul	r21, r30
 61c:	f0 01       	movw	r30, r0
 61e:	11 24       	eor	r1, r1
 620:	e0 57       	subi	r30, 0x70	; 112
 622:	ff 4f       	sbci	r31, 0xFF	; 255
 624:	c2 81       	ldd	r28, Z+2	; 0x02
 626:	d3 81       	ldd	r29, Z+3	; 0x03
 628:	68 81       	ld	r22, Y
 62a:	89 01       	movw	r16, r18
 62c:	02 c0       	rjmp	.+4      	; 0x632 <DIO_init+0x46>
 62e:	00 0f       	add	r16, r16
 630:	11 1f       	adc	r17, r17
 632:	8a 95       	dec	r24
 634:	e2 f7       	brpl	.-8      	; 0x62e <DIO_init+0x42>
 636:	c8 01       	movw	r24, r16
 638:	90 2f       	mov	r25, r16
 63a:	90 95       	com	r25
 63c:	96 23       	and	r25, r22
 63e:	98 83       	st	Y, r25
 640:	01 90       	ld	r0, Z+
 642:	f0 81       	ld	r31, Z
 644:	e0 2d       	mov	r30, r0
 646:	90 81       	ld	r25, Z
 648:	89 2b       	or	r24, r25
 64a:	30 c0       	rjmp	.+96     	; 0x6ac <DIO_init+0xc0>
 64c:	5e 9f       	mul	r21, r30
 64e:	f0 01       	movw	r30, r0
 650:	11 24       	eor	r1, r1
 652:	e0 57       	subi	r30, 0x70	; 112
 654:	ff 4f       	sbci	r31, 0xFF	; 255
 656:	c2 81       	ldd	r28, Z+2	; 0x02
 658:	d3 81       	ldd	r29, Z+3	; 0x03
 65a:	68 81       	ld	r22, Y
 65c:	89 01       	movw	r16, r18
 65e:	02 c0       	rjmp	.+4      	; 0x664 <DIO_init+0x78>
 660:	00 0f       	add	r16, r16
 662:	11 1f       	adc	r17, r17
 664:	8a 95       	dec	r24
 666:	e2 f7       	brpl	.-8      	; 0x660 <DIO_init+0x74>
 668:	c8 01       	movw	r24, r16
 66a:	96 2f       	mov	r25, r22
 66c:	98 2b       	or	r25, r24
 66e:	98 83       	st	Y, r25
 670:	01 90       	ld	r0, Z+
 672:	f0 81       	ld	r31, Z
 674:	e0 2d       	mov	r30, r0
 676:	90 81       	ld	r25, Z
 678:	80 95       	com	r24
 67a:	17 c0       	rjmp	.+46     	; 0x6aa <DIO_init+0xbe>
 67c:	5e 9f       	mul	r21, r30
 67e:	f0 01       	movw	r30, r0
 680:	11 24       	eor	r1, r1
 682:	e0 57       	subi	r30, 0x70	; 112
 684:	ff 4f       	sbci	r31, 0xFF	; 255
 686:	c2 81       	ldd	r28, Z+2	; 0x02
 688:	d3 81       	ldd	r29, Z+3	; 0x03
 68a:	68 81       	ld	r22, Y
 68c:	89 01       	movw	r16, r18
 68e:	02 c0       	rjmp	.+4      	; 0x694 <DIO_init+0xa8>
 690:	00 0f       	add	r16, r16
 692:	11 1f       	adc	r17, r17
 694:	8a 95       	dec	r24
 696:	e2 f7       	brpl	.-8      	; 0x690 <DIO_init+0xa4>
 698:	c8 01       	movw	r24, r16
 69a:	80 95       	com	r24
 69c:	96 2f       	mov	r25, r22
 69e:	98 23       	and	r25, r24
 6a0:	98 83       	st	Y, r25
 6a2:	01 90       	ld	r0, Z+
 6a4:	f0 81       	ld	r31, Z
 6a6:	e0 2d       	mov	r30, r0
 6a8:	90 81       	ld	r25, Z
 6aa:	89 23       	and	r24, r25
 6ac:	80 83       	st	Z, r24
 6ae:	4f 5f       	subi	r20, 0xFF	; 255
 6b0:	40 32       	cpi	r20, 0x20	; 32
 6b2:	09 f0       	breq	.+2      	; 0x6b6 <DIO_init+0xca>
 6b4:	a5 cf       	rjmp	.-182    	; 0x600 <DIO_init+0x14>
 6b6:	df 91       	pop	r29
 6b8:	cf 91       	pop	r28
 6ba:	1f 91       	pop	r17
 6bc:	0f 91       	pop	r16
 6be:	08 95       	ret

000006c0 <DIO_WritePin>:
 6c0:	80 32       	cpi	r24, 0x20	; 32
 6c2:	a0 f5       	brcc	.+104    	; 0x72c <DIO_WritePin+0x6c>
 6c4:	e8 2f       	mov	r30, r24
 6c6:	e6 95       	lsr	r30
 6c8:	e6 95       	lsr	r30
 6ca:	e6 95       	lsr	r30
 6cc:	87 70       	andi	r24, 0x07	; 7
 6ce:	66 23       	and	r22, r22
 6d0:	b9 f0       	breq	.+46     	; 0x700 <DIO_WritePin+0x40>
 6d2:	61 30       	cpi	r22, 0x01	; 1
 6d4:	59 f5       	brne	.+86     	; 0x72c <DIO_WritePin+0x6c>
 6d6:	66 e0       	ldi	r22, 0x06	; 6
 6d8:	e6 9f       	mul	r30, r22
 6da:	f0 01       	movw	r30, r0
 6dc:	11 24       	eor	r1, r1
 6de:	e0 57       	subi	r30, 0x70	; 112
 6e0:	ff 4f       	sbci	r31, 0xFF	; 255
 6e2:	01 90       	ld	r0, Z+
 6e4:	f0 81       	ld	r31, Z
 6e6:	e0 2d       	mov	r30, r0
 6e8:	40 81       	ld	r20, Z
 6ea:	21 e0       	ldi	r18, 0x01	; 1
 6ec:	30 e0       	ldi	r19, 0x00	; 0
 6ee:	b9 01       	movw	r22, r18
 6f0:	02 c0       	rjmp	.+4      	; 0x6f6 <DIO_WritePin+0x36>
 6f2:	66 0f       	add	r22, r22
 6f4:	77 1f       	adc	r23, r23
 6f6:	8a 95       	dec	r24
 6f8:	e2 f7       	brpl	.-8      	; 0x6f2 <DIO_WritePin+0x32>
 6fa:	cb 01       	movw	r24, r22
 6fc:	84 2b       	or	r24, r20
 6fe:	15 c0       	rjmp	.+42     	; 0x72a <DIO_WritePin+0x6a>
 700:	76 e0       	ldi	r23, 0x06	; 6
 702:	e7 9f       	mul	r30, r23
 704:	f0 01       	movw	r30, r0
 706:	11 24       	eor	r1, r1
 708:	e0 57       	subi	r30, 0x70	; 112
 70a:	ff 4f       	sbci	r31, 0xFF	; 255
 70c:	01 90       	ld	r0, Z+
 70e:	f0 81       	ld	r31, Z
 710:	e0 2d       	mov	r30, r0
 712:	40 81       	ld	r20, Z
 714:	21 e0       	ldi	r18, 0x01	; 1
 716:	30 e0       	ldi	r19, 0x00	; 0
 718:	b9 01       	movw	r22, r18
 71a:	02 c0       	rjmp	.+4      	; 0x720 <DIO_WritePin+0x60>
 71c:	66 0f       	add	r22, r22
 71e:	77 1f       	adc	r23, r23
 720:	8a 95       	dec	r24
 722:	e2 f7       	brpl	.-8      	; 0x71c <DIO_WritePin+0x5c>
 724:	cb 01       	movw	r24, r22
 726:	80 95       	com	r24
 728:	84 23       	and	r24, r20
 72a:	80 83       	st	Z, r24
 72c:	08 95       	ret

0000072e <DIO_ReadPin>:
 72e:	80 32       	cpi	r24, 0x20	; 32
 730:	c8 f4       	brcc	.+50     	; 0x764 <DIO_ReadPin+0x36>
 732:	e8 2f       	mov	r30, r24
 734:	e6 95       	lsr	r30
 736:	e6 95       	lsr	r30
 738:	e6 95       	lsr	r30
 73a:	46 e0       	ldi	r20, 0x06	; 6
 73c:	e4 9f       	mul	r30, r20
 73e:	f0 01       	movw	r30, r0
 740:	11 24       	eor	r1, r1
 742:	e0 57       	subi	r30, 0x70	; 112
 744:	ff 4f       	sbci	r31, 0xFF	; 255
 746:	04 80       	ldd	r0, Z+4	; 0x04
 748:	f5 81       	ldd	r31, Z+5	; 0x05
 74a:	e0 2d       	mov	r30, r0
 74c:	20 81       	ld	r18, Z
 74e:	30 e0       	ldi	r19, 0x00	; 0
 750:	87 70       	andi	r24, 0x07	; 7
 752:	a9 01       	movw	r20, r18
 754:	02 c0       	rjmp	.+4      	; 0x75a <DIO_ReadPin+0x2c>
 756:	55 95       	asr	r21
 758:	47 95       	ror	r20
 75a:	8a 95       	dec	r24
 75c:	e2 f7       	brpl	.-8      	; 0x756 <DIO_ReadPin+0x28>
 75e:	ca 01       	movw	r24, r20
 760:	81 70       	andi	r24, 0x01	; 1
 762:	08 95       	ret
 764:	80 e0       	ldi	r24, 0x00	; 0
 766:	08 95       	ret

00000768 <__divmodsi4>:
 768:	05 2e       	mov	r0, r21
 76a:	97 fb       	bst	r25, 7
 76c:	1e f4       	brtc	.+6      	; 0x774 <__divmodsi4+0xc>
 76e:	00 94       	com	r0
 770:	0e 94 cb 03 	call	0x796	; 0x796 <__negsi2>
 774:	57 fd       	sbrc	r21, 7
 776:	07 d0       	rcall	.+14     	; 0x786 <__divmodsi4_neg2>
 778:	0e 94 de 03 	call	0x7bc	; 0x7bc <__udivmodsi4>
 77c:	07 fc       	sbrc	r0, 7
 77e:	03 d0       	rcall	.+6      	; 0x786 <__divmodsi4_neg2>
 780:	4e f4       	brtc	.+18     	; 0x794 <__divmodsi4_exit>
 782:	0c 94 cb 03 	jmp	0x796	; 0x796 <__negsi2>

00000786 <__divmodsi4_neg2>:
 786:	50 95       	com	r21
 788:	40 95       	com	r20
 78a:	30 95       	com	r19
 78c:	21 95       	neg	r18
 78e:	3f 4f       	sbci	r19, 0xFF	; 255
 790:	4f 4f       	sbci	r20, 0xFF	; 255
 792:	5f 4f       	sbci	r21, 0xFF	; 255

00000794 <__divmodsi4_exit>:
 794:	08 95       	ret

00000796 <__negsi2>:
 796:	90 95       	com	r25
 798:	80 95       	com	r24
 79a:	70 95       	com	r23
 79c:	61 95       	neg	r22
 79e:	7f 4f       	sbci	r23, 0xFF	; 255
 7a0:	8f 4f       	sbci	r24, 0xFF	; 255
 7a2:	9f 4f       	sbci	r25, 0xFF	; 255
 7a4:	08 95       	ret

000007a6 <__muluhisi3>:
 7a6:	0e 94 00 04 	call	0x800	; 0x800 <__umulhisi3>
 7aa:	a5 9f       	mul	r26, r21
 7ac:	90 0d       	add	r25, r0
 7ae:	b4 9f       	mul	r27, r20
 7b0:	90 0d       	add	r25, r0
 7b2:	a4 9f       	mul	r26, r20
 7b4:	80 0d       	add	r24, r0
 7b6:	91 1d       	adc	r25, r1
 7b8:	11 24       	eor	r1, r1
 7ba:	08 95       	ret

000007bc <__udivmodsi4>:
 7bc:	a1 e2       	ldi	r26, 0x21	; 33
 7be:	1a 2e       	mov	r1, r26
 7c0:	aa 1b       	sub	r26, r26
 7c2:	bb 1b       	sub	r27, r27
 7c4:	fd 01       	movw	r30, r26
 7c6:	0d c0       	rjmp	.+26     	; 0x7e2 <__udivmodsi4_ep>

000007c8 <__udivmodsi4_loop>:
 7c8:	aa 1f       	adc	r26, r26
 7ca:	bb 1f       	adc	r27, r27
 7cc:	ee 1f       	adc	r30, r30
 7ce:	ff 1f       	adc	r31, r31
 7d0:	a2 17       	cp	r26, r18
 7d2:	b3 07       	cpc	r27, r19
 7d4:	e4 07       	cpc	r30, r20
 7d6:	f5 07       	cpc	r31, r21
 7d8:	20 f0       	brcs	.+8      	; 0x7e2 <__udivmodsi4_ep>
 7da:	a2 1b       	sub	r26, r18
 7dc:	b3 0b       	sbc	r27, r19
 7de:	e4 0b       	sbc	r30, r20
 7e0:	f5 0b       	sbc	r31, r21

000007e2 <__udivmodsi4_ep>:
 7e2:	66 1f       	adc	r22, r22
 7e4:	77 1f       	adc	r23, r23
 7e6:	88 1f       	adc	r24, r24
 7e8:	99 1f       	adc	r25, r25
 7ea:	1a 94       	dec	r1
 7ec:	69 f7       	brne	.-38     	; 0x7c8 <__udivmodsi4_loop>
 7ee:	60 95       	com	r22
 7f0:	70 95       	com	r23
 7f2:	80 95       	com	r24
 7f4:	90 95       	com	r25
 7f6:	9b 01       	movw	r18, r22
 7f8:	ac 01       	movw	r20, r24
 7fa:	bd 01       	movw	r22, r26
 7fc:	cf 01       	movw	r24, r30
 7fe:	08 95       	ret

00000800 <__umulhisi3>:
 800:	a2 9f       	mul	r26, r18
 802:	b0 01       	movw	r22, r0
 804:	b3 9f       	mul	r27, r19
 806:	c0 01       	movw	r24, r0
 808:	a3 9f       	mul	r26, r19
 80a:	70 0d       	add	r23, r0
 80c:	81 1d       	adc	r24, r1
 80e:	11 24       	eor	r1, r1
 810:	91 1d       	adc	r25, r1
 812:	b2 9f       	mul	r27, r18
 814:	70 0d       	add	r23, r0
 816:	81 1d       	adc	r24, r1
 818:	11 24       	eor	r1, r1
 81a:	91 1d       	adc	r25, r1
 81c:	08 95       	ret

0000081e <_exit>:
 81e:	f8 94       	cli

00000820 <__stop_program>:
 820:	ff cf       	rjmp	.-2      	; 0x820 <__stop_program>
